; Function Attrs: nofree norecurse nosync nounwind memory(argmem: readwrite) uwtable
define hidden noundef signext i8 @nfaExecGough8_expandState(ptr noundef readonly captures(none) %0, ptr noundef writeonly captures(none) initializes((0, 1)) %1, ptr noundef readonly captures(none) %2, i64 noundef %3, i8 noundef zeroext %4) local_unnamed_addr #7 {
  %6 = load i8, ptr %2, align 1
  store i8 %6, ptr %1, align 1
  %7 = getelementptr inbounds nuw i8, ptr %1, i64 16
  %8 = getelementptr inbounds nuw i8, ptr %2, i64 1
  %9 = getelementptr inbounds nuw i8, ptr %0, i64 364
  %10 = load i32, ptr %9, align 4
  %11 = zext i32 %10 to i64
  %12 = getelementptr inbounds nuw i8, ptr %0, i64 %11
  %13 = getelementptr inbounds nuw i8, ptr %12, i64 8
  %14 = load i32, ptr %13, align 4
  %15 = getelementptr inbounds nuw i8, ptr %12, i64 12
  %16 = load i8, ptr %15, align 4
  %17 = zext i8 %16 to i32
  %.not = icmp eq i32 %14, 0
  br i1 %.not, label %expandSomSpace.exit, label %.lr.ph

.lr.ph:                                           ; preds = %5
  %wide.trip.count34 = zext i32 %14 to i64
  switch i8 %16, label %expandSomValue.exit [
    i8 2, label %.lr.ph.split.us
    i8 4, label %.lr.ph.split.us7
    i8 8, label %.lr.ph.split.us12
  ]

.lr.ph.split.us:                                  ; preds = %.lr.ph, %.lr.ph.split.us
  %indvars.iv26 = phi i64 [ %indvars.iv.next27, %.lr.ph.split.us ], [ 0, %.lr.ph ]
  %18 = trunc nuw i64 %indvars.iv26 to i32
  %19 = mul i32 %18, %17
  %20 = zext i32 %19 to i64
  %21 = getelementptr inbounds nuw i8, ptr %8, i64 %20
  %22 = load i16, ptr %21, align 1
  %23 = zext i16 %22 to i64
  %24 = icmp eq i16 %22, -1
  %25 = sub i64 %3, %23
  %.012.i.us = select i1 %24, i64 -1, i64 %25
  %26 = getelementptr inbounds nuw [1 x i64], ptr %7, i64 0, i64 %indvars.iv26
  store i64 %.012.i.us, ptr %26, align 8
  %indvars.iv.next27 = add nuw nsw i64 %indvars.iv26, 1
  %exitcond30.not = icmp eq i64 %indvars.iv.next27, %wide.trip.count34
  br i1 %exitcond30.not, label %expandSomSpace.exit, label %.lr.ph.split.us

.lr.ph.split.us7:                                 ; preds = %.lr.ph, %.lr.ph.split.us7
  %indvars.iv21 = phi i64 [ %indvars.iv.next22, %.lr.ph.split.us7 ], [ 0, %.lr.ph ]
  %27 = trunc nuw i64 %indvars.iv21 to i32
  %28 = mul i32 %27, %17
  %29 = zext i32 %28 to i64
  %30 = getelementptr inbounds nuw i8, ptr %8, i64 %29
  %31 = load i32, ptr %30, align 1
  %32 = zext i32 %31 to i64
  %33 = icmp eq i32 %31, -1
  %34 = sub i64 %3, %32
  %.012.i.us11 = select i1 %33, i64 -1, i64 %34
  %35 = getelementptr inbounds nuw [1 x i64], ptr %7, i64 0, i64 %indvars.iv21
  store i64 %.012.i.us11, ptr %35, align 8
  %indvars.iv.next22 = add nuw nsw i64 %indvars.iv21, 1
  %exitcond25.not = icmp eq i64 %indvars.iv.next22, %wide.trip.count34
  br i1 %exitcond25.not, label %expandSomSpace.exit, label %.lr.ph.split.us7

.lr.ph.split.us12:                                ; preds = %.lr.ph, %.lr.ph.split.us12
  %indvars.iv = phi i64 [ %indvars.iv.next, %.lr.ph.split.us12 ], [ 0, %.lr.ph ]
  %36 = trunc nuw i64 %indvars.iv to i32
  %37 = mul i32 %36, %17
  %38 = zext i32 %37 to i64
  %39 = getelementptr inbounds nuw i8, ptr %8, i64 %38
  %40 = load i64, ptr %39, align 1
  %41 = icmp eq i64 %40, -1
  %42 = sub i64 %3, %40
  %spec.select = select i1 %41, i64 -1, i64 %42
  %43 = getelementptr inbounds nuw [1 x i64], ptr %7, i64 0, i64 %indvars.iv
  store i64 %spec.select, ptr %43, align 8
  %indvars.iv.next = add nuw nsw i64 %indvars.iv, 1
  %exitcond.not = icmp eq i64 %indvars.iv.next, %wide.trip.count34
  br i1 %exitcond.not, label %expandSomSpace.exit, label %.lr.ph.split.us12

expandSomValue.exit:                              ; preds = %.lr.ph, %expandSomValue.exit
  %indvars.iv31 = phi i64 [ %indvars.iv.next32, %expandSomValue.exit ], [ 0, %.lr.ph ]
  %44 = getelementptr inbounds nuw [1 x i64], ptr %7, i64 0, i64 %indvars.iv31
  store i64 %3, ptr %44, align 8
  %indvars.iv.next32 = add nuw nsw i64 %indvars.iv31, 1
  %exitcond35.not = icmp eq i64 %indvars.iv.next32, %wide.trip.count34
  br i1 %exitcond35.not, label %expandSomSpace.exit, label %expandSomValue.exit

expandSomSpace.exit:                              ; preds = %.lr.ph.split.us12, %.lr.ph.split.us7, %.lr.ph.split.us, %expandSomValue.exit, %5
  ret i8 0
}